target datalayout = "e-m:e-p270:32:32-p271:32:32-p272:64:64-i64:64-i128:128-f80:128-n8:16:32:64-S128"
target triple = "x86_64-pc-linux-gnu"

%struct.cli_ctx_tag = type { ptr, ptr, ptr, ptr, ptr, ptr, ptr, i64, ptr, i32, i32, ptr, i32, i32, ptr, [16 x i8], ptr, ptr, ptr, ptr, ptr, ptr, %struct.timeval, i8, i8 }
%struct.timeval = type { i64, i64 }
%struct.cl_engine = type { i32, i32, i32, [2 x i32], i32, i32, i32, ptr, i32, i64, i32, i32, i64, i64, i32, i32, i32, i32, ptr, ptr, ptr, ptr, ptr, ptr, ptr, ptr, ptr, ptr, ptr, ptr, ptr, ptr, ptr, ptr, ptr, ptr, ptr, i64, ptr, %struct.crtmgr, ptr, ptr, ptr, ptr, ptr, ptr, ptr, ptr, ptr, ptr, ptr, ptr, ptr, ptr, ptr, ptr, ptr, %struct.cli_all_bc, [7 x ptr], [7 x i32], i32, i32, i32, i32, i64, i64, i64, i64, i64, ptr, ptr, ptr, ptr, ptr, ptr, ptr, ptr, ptr, i32, i32, i32, i64, i64, i64, ptr }
%struct.crtmgr = type { ptr, i32 }
%struct.cli_all_bc = type { ptr, i32, ptr, %struct.cli_environment, i32 }
%struct.cli_environment = type { i32, i32, i32, i32, i32, i32, i32, [65 x i8], [65 x i8], [65 x i8], [65 x i8], [65 x i8], [65 x i8], [65 x i8], i8, i8, i8, i8, i8, i8, i8, i8, i8 }
%struct.cli_exe_info = type { ptr, i32, i32, i16, i32, i32, %struct.cli_hashset, i32, i32, i32, i32, i32, i32, i32, i32, i32, %struct.pe_image_file_hdr, %union.anon, [16 x %struct.pe_image_data_dir] }
%struct.cli_hashset = type { ptr, ptr, ptr, i32, i32, i32, i32 }
%struct.pe_image_file_hdr = type { i32, i16, i16, i32, i32, i32, i16, i16 }
%union.anon = type { %struct.pe_image_optional_hdr64 }
%struct.pe_image_optional_hdr64 = type { i16, i8, i8, i32, i32, i32, i32, i32, i64, i32, i32, i16, i16, i16, i16, i16, i16, i32, i32, i32, i32, i16, i16, i64, i64, i64, i64, i32, i32 }
%struct.pe_image_data_dir = type { i32, i32 }
%struct.cli_dconf = type { i32, i32, i32, i32, i32, i32, i32, i32, i32, i32, i32 }
%struct.cli_bc_ctx = type { i8, i16, i32, ptr, ptr, i32, i32, ptr, ptr, ptr, i32, i32, i64, ptr, ptr, ptr, %struct.cli_bc_hooks, %struct.cli_exe_info, [64 x i32], [64 x i32], i32, ptr, ptr, i32, i32, i32, i32, ptr, i32, ptr, ptr, i32, i32, i32, i32, i32, i32, ptr, ptr, ptr, ptr, ptr, ptr, ptr, i32, i32, i32, i32, ptr, ptr, ptr, ptr, ptr, i32, i32, i32, i32, ptr, ptr, ptr, ptr, i32, i32, i32, ptr, i32, ptr, i32, i32, ptr, i32 }
%struct.cli_bc_hooks = type { ptr, ptr, ptr, ptr, ptr }
%struct.cli_pe_hook_data = type { i32, i32, i16, i16, %struct.pe_image_file_hdr, %struct.pe_image_optional_hdr32, [16 x %struct.pe_image_data_dir], i32, %struct.pe_image_optional_hdr64, [16 x %struct.pe_image_data_dir], [16 x %struct.pe_image_data_dir], i32, i32, i32, i32 }
%struct.pe_image_optional_hdr32 = type { i16, i8, i8, i32, i32, i32, i32, i32, i32, i32, i32, i32, i16, i16, i16, i16, i16, i16, i32, i32, i32, i32, i16, i16, i32, i32, i32, i32, i32, i32 }
%struct.cli_bc = type { %struct.bytecode_metadata, i32, i32, i32, i32, ptr, ptr, ptr, ptr, i64, i32, ptr, ptr, ptr, ptr, i32, i16, ptr, i32, i32, i32, i32, ptr, i32, i32, ptr }
%struct.bytecode_metadata = type { ptr, ptr, i64, i32, i32, i32, i32, i32 }
%struct.icon_groupset = type { [2 x [4 x i64]] }
%struct.icon_matcher = type { [2 x ptr], [2 x i32], [3 x ptr], [3 x i32] }

@.str.2 = private unnamed_addr constant [2 x i8] c"*\00", align 1
@.str.31 = private unnamed_addr constant [46 x i8] c"bytecode: matchicon only works with PE files\0A\00", align 1
@.str.32 = private unnamed_addr constant [26 x i8] c"bytecode matchicon %s %s\0A\00", align 1

; Function Attrs: nounwind uwtable
define internal void @cli_icongroupset_init(ptr noundef %0) #0 {
  %2 = alloca ptr, align 8
  store ptr %0, ptr %2, align 8
  %3 = load ptr, ptr %2, align 8
  %4 = getelementptr inbounds %struct.icon_groupset, ptr %3, i32 0, i32 0
  %5 = getelementptr inbounds [2 x [4 x i64]], ptr %4, i64 0, i64 0
  %6 = getelementptr inbounds [4 x i64], ptr %5, i64 0, i64 0
  store i64 0, ptr %6, align 8
  %7 = load ptr, ptr %2, align 8
  %8 = getelementptr inbounds %struct.icon_groupset, ptr %7, i32 0, i32 0
  %9 = getelementptr inbounds [2 x [4 x i64]], ptr %8, i64 0, i64 0
  %10 = getelementptr inbounds [4 x i64], ptr %9, i64 0, i64 1
  store i64 0, ptr %10, align 8
  %11 = load ptr, ptr %2, align 8
  %12 = getelementptr inbounds %struct.icon_groupset, ptr %11, i32 0, i32 0
  %13 = getelementptr inbounds [2 x [4 x i64]], ptr %12, i64 0, i64 0
  %14 = getelementptr inbounds [4 x i64], ptr %13, i64 0, i64 2
  store i64 0, ptr %14, align 8
  %15 = load ptr, ptr %2, align 8
  %16 = getelementptr inbounds %struct.icon_groupset, ptr %15, i32 0, i32 0
  %17 = getelementptr inbounds [2 x [4 x i64]], ptr %16, i64 0, i64 0
  %18 = getelementptr inbounds [4 x i64], ptr %17, i64 0, i64 3
  store i64 0, ptr %18, align 8
  %19 = load ptr, ptr %2, align 8
  %20 = getelementptr inbounds %struct.icon_groupset, ptr %19, i32 0, i32 0
  %21 = getelementptr inbounds [2 x [4 x i64]], ptr %20, i64 0, i64 1
  %22 = getelementptr inbounds [4 x i64], ptr %21, i64 0, i64 0
  store i64 0, ptr %22, align 8
  %23 = load ptr, ptr %2, align 8
  %24 = getelementptr inbounds %struct.icon_groupset, ptr %23, i32 0, i32 0
  %25 = getelementptr inbounds [2 x [4 x i64]], ptr %24, i64 0, i64 1
  %26 = getelementptr inbounds [4 x i64], ptr %25, i64 0, i64 1
  store i64 0, ptr %26, align 8
  %27 = load ptr, ptr %2, align 8
  %28 = getelementptr inbounds %struct.icon_groupset, ptr %27, i32 0, i32 0
  %29 = getelementptr inbounds [2 x [4 x i64]], ptr %28, i64 0, i64 1
  %30 = getelementptr inbounds [4 x i64], ptr %29, i64 0, i64 2
  store i64 0, ptr %30, align 8
  %31 = load ptr, ptr %2, align 8
  %32 = getelementptr inbounds %struct.icon_groupset, ptr %31, i32 0, i32 0
  %33 = getelementptr inbounds [2 x [4 x i64]], ptr %32, i64 0, i64 1
  %34 = getelementptr inbounds [4 x i64], ptr %33, i64 0, i64 3
  store i64 0, ptr %34, align 8
  ret void
}

; Function Attrs: nounwind uwtable
define internal i32 @matchicon(ptr noundef %0, ptr noundef %1, ptr noundef %2, ptr noundef %3) #0 {
  %5 = alloca i32, align 4
  %6 = alloca ptr, align 8
  %7 = alloca ptr, align 8
  %8 = alloca ptr, align 8
  %9 = alloca ptr, align 8
  %10 = alloca %struct.icon_groupset, align 8
  store ptr %0, ptr %6, align 8
  store ptr %1, ptr %7, align 8
  store ptr %2, ptr %8, align 8
  store ptr %3, ptr %9, align 8
  %11 = load ptr, ptr %6, align 8
  %12 = icmp ne ptr %11, null
  br i1 %12, label %13, label %50

13:                                               ; preds = %4
  %14 = load ptr, ptr %6, align 8
  %15 = getelementptr inbounds %struct.cli_ctx_tag, ptr %14, i32 0, i32 6
  %16 = load ptr, ptr %15, align 8
  %17 = icmp ne ptr %16, null
  br i1 %17, label %18, label %50

18:                                               ; preds = %13
  %19 = load ptr, ptr %6, align 8
  %20 = getelementptr inbounds %struct.cli_ctx_tag, ptr %19, i32 0, i32 6
  %21 = load ptr, ptr %20, align 8
  %22 = getelementptr inbounds %struct.cl_engine, ptr %21, i32 0, i32 34
  %23 = load ptr, ptr %22, align 8
  %24 = icmp ne ptr %23, null
  br i1 %24, label %25, label %50

25:                                               ; preds = %18
  %26 = load ptr, ptr %6, align 8
  %27 = getelementptr inbounds %struct.cli_ctx_tag, ptr %26, i32 0, i32 6
  %28 = load ptr, ptr %27, align 8
  %29 = getelementptr inbounds %struct.cl_engine, ptr %28, i32 0, i32 34
  %30 = load ptr, ptr %29, align 8
  %31 = getelementptr inbounds %struct.icon_matcher, ptr %30, i32 0, i32 1
  %32 = getelementptr inbounds [2 x i32], ptr %31, i64 0, i64 0
  %33 = load i32, ptr %32, align 8
  %34 = icmp ne i32 %33, 0
  br i1 %34, label %35, label %50

35:                                               ; preds = %25
  %36 = load ptr, ptr %6, align 8
  %37 = getelementptr inbounds %struct.cli_ctx_tag, ptr %36, i32 0, i32 6
  %38 = load ptr, ptr %37, align 8
  %39 = getelementptr inbounds %struct.cl_engine, ptr %38, i32 0, i32 34
  %40 = load ptr, ptr %39, align 8
  %41 = getelementptr inbounds %struct.icon_matcher, ptr %40, i32 0, i32 1
  %42 = getelementptr inbounds [2 x i32], ptr %41, i64 0, i64 1
  %43 = load i32, ptr %42, align 4
  %44 = icmp ne i32 %43, 0
  br i1 %44, label %45, label %50

45:                                               ; preds = %35
  %46 = load ptr, ptr %7, align 8
  %47 = getelementptr inbounds %struct.cli_exe_info, ptr %46, i32 0, i32 4
  %48 = load i32, ptr %47, align 4
  %49 = icmp ne i32 %48, 0
  br i1 %49, label %51, label %50

50:                                               ; preds = %45, %35, %25, %18, %13, %4
  store i32 0, ptr %5, align 4
  br label %80

51:                                               ; preds = %45
  %52 = load ptr, ptr %6, align 8
  %53 = getelementptr inbounds %struct.cli_ctx_tag, ptr %52, i32 0, i32 16
  %54 = load ptr, ptr %53, align 8
  %55 = getelementptr inbounds %struct.cli_dconf, ptr %54, i32 0, i32 0
  %56 = load i32, ptr %55, align 4
  %57 = and i32 %56, 262144
  %58 = icmp ne i32 %57, 0
  br i1 %58, label %60, label %59

59:                                               ; preds = %51
  store i32 0, ptr %5, align 4
  br label %80

60:                                               ; preds = %51
  call void @cli_icongroupset_init(ptr noundef %10)
  %61 = load ptr, ptr %8, align 8
  %62 = icmp ne ptr %61, null
  br i1 %62, label %63, label %65

63:                                               ; preds = %60
  %64 = load ptr, ptr %8, align 8
  br label %66

65:                                               ; preds = %60
  br label %66

66:                                               ; preds = %65, %63
  %67 = phi ptr [ %64, %63 ], [ @.str.2, %65 ]
  %68 = load ptr, ptr %6, align 8
  call void @cli_icongroupset_add(ptr noundef %67, ptr noundef %10, i32 noundef 0, ptr noundef %68)
  %69 = load ptr, ptr %9, align 8
  %70 = icmp ne ptr %69, null
  br i1 %70, label %71, label %73

71:                                               ; preds = %66
  %72 = load ptr, ptr %9, align 8
  br label %74

73:                                               ; preds = %66
  br label %74

74:                                               ; preds = %73, %71
  %75 = phi ptr [ %72, %71 ], [ @.str.2, %73 ]
  %76 = load ptr, ptr %6, align 8
  call void @cli_icongroupset_add(ptr noundef %75, ptr noundef %10, i32 noundef 1, ptr noundef %76)
  %77 = load ptr, ptr %6, align 8
  %78 = load ptr, ptr %7, align 8
  %79 = call i32 @cli_scanicon(ptr noundef %10, ptr noundef %77, ptr noundef %78)
  store i32 %79, ptr %5, align 4
  br label %80

80:                                               ; preds = %74, %59, %50
  %81 = load i32, ptr %5, align 4
  ret i32 %81
}

; Function Attrs: nounwind uwtable
define i32 @cli_bcapi_matchicon(ptr noundef %0, ptr noundef %1, i32 noundef %2, ptr noundef %3, i32 noundef %4) #0 {
  %6 = alloca i32, align 4
  %7 = alloca ptr, align 8
  %8 = alloca ptr, align 8
  %9 = alloca i32, align 4
  %10 = alloca ptr, align 8
  %11 = alloca i32, align 4
  %12 = alloca i32, align 4
  %13 = alloca [128 x i8], align 16
  %14 = alloca [128 x i8], align 16
  %15 = alloca %struct.cli_exe_info, align 8
  store ptr %0, ptr %7, align 8
  store ptr %1, ptr %8, align 8
  store i32 %2, ptr %9, align 4
  store ptr %3, ptr %10, align 8
  store i32 %4, ptr %11, align 4
  %16 = load ptr, ptr %7, align 8
  %17 = getelementptr inbounds %struct.cli_bc_ctx, ptr %16, i32 0, i32 16
  %18 = getelementptr inbounds %struct.cli_bc_hooks, ptr %17, i32 0, i32 4
  %19 = load ptr, ptr %18, align 8
  %20 = getelementptr inbounds %struct.cli_pe_hook_data, ptr %19, i32 0, i32 1
  %21 = load i32, ptr %20, align 4
  %22 = icmp ne i32 %21, 0
  br i1 %22, label %24, label %23

23:                                               ; preds = %5
  call void (ptr, ...) @cli_dbgmsg(ptr noundef @.str.31)
  store i32 -1, ptr %6, align 4
  br label %144

24:                                               ; preds = %5
  %25 = load i32, ptr %9, align 4
  %26 = sext i32 %25 to i64
  %27 = icmp ugt i64 %26, 127
  br i1 %27, label %32, label %28

28:                                               ; preds = %24
  %29 = load i32, ptr %11, align 4
  %30 = sext i32 %29 to i64
  %31 = icmp ugt i64 %30, 127
  br i1 %31, label %32, label %33

32:                                               ; preds = %28, %24
  store i32 -1, ptr %6, align 4
  br label %144

33:                                               ; preds = %28
  %34 = getelementptr inbounds [128 x i8], ptr %13, i64 0, i64 0
  %35 = load ptr, ptr %8, align 8
  %36 = load i32, ptr %9, align 4
  %37 = sext i32 %36 to i64
  call void @llvm.memcpy.p0.p0.i64(ptr align 16 %34, ptr align 1 %35, i64 %37, i1 false)
  %38 = getelementptr inbounds [128 x i8], ptr %14, i64 0, i64 0
  %39 = load ptr, ptr %10, align 8
  %40 = load i32, ptr %11, align 4
  %41 = sext i32 %40 to i64
  call void @llvm.memcpy.p0.p0.i64(ptr align 16 %38, ptr align 1 %39, i64 %41, i1 false)
  %42 = load i32, ptr %9, align 4
  %43 = sext i32 %42 to i64
  %44 = getelementptr inbounds [128 x i8], ptr %13, i64 0, i64 %43
  store i8 0, ptr %44, align 1
  %45 = load i32, ptr %11, align 4
  %46 = sext i32 %45 to i64
  %47 = getelementptr inbounds [128 x i8], ptr %14, i64 0, i64 %46
  store i8 0, ptr %47, align 1
  call void @llvm.memset.p0.i64(ptr align 8 %15, i8 0, i64 376, i1 false)
  %48 = load ptr, ptr %7, align 8
  %49 = getelementptr inbounds %struct.cli_bc_ctx, ptr %48, i32 0, i32 3
  %50 = load ptr, ptr %49, align 8
  %51 = getelementptr inbounds %struct.cli_bc, ptr %50, i32 0, i32 2
  %52 = load i32, ptr %51, align 4
  %53 = icmp eq i32 %52, 257
  br i1 %53, label %61, label %54

54:                                               ; preds = %33
  %55 = load ptr, ptr %7, align 8
  %56 = getelementptr inbounds %struct.cli_bc_ctx, ptr %55, i32 0, i32 3
  %57 = load ptr, ptr %56, align 8
  %58 = getelementptr inbounds %struct.cli_bc, ptr %57, i32 0, i32 2
  %59 = load i32, ptr %58, align 4
  %60 = icmp eq i32 %59, 259
  br i1 %60, label %61, label %95

61:                                               ; preds = %54, %33
  %62 = load ptr, ptr %7, align 8
  %63 = getelementptr inbounds %struct.cli_bc_ctx, ptr %62, i32 0, i32 16
  %64 = getelementptr inbounds %struct.cli_bc_hooks, ptr %63, i32 0, i32 4
  %65 = load ptr, ptr %64, align 8
  %66 = getelementptr inbounds %struct.cli_pe_hook_data, ptr %65, i32 0, i32 4
  %67 = getelementptr inbounds %struct.pe_image_file_hdr, ptr %66, i32 0, i32 7
  %68 = load i16, ptr %67, align 2
  %69 = zext i16 %68 to i32
  %70 = and i32 %69, 8192
  %71 = icmp ne i32 %70, 0
  br i1 %71, label %82, label %72

72:                                               ; preds = %61
  %73 = load ptr, ptr %7, align 8
  %74 = getelementptr inbounds %struct.cli_bc_ctx, ptr %73, i32 0, i32 16
  %75 = getelementptr inbounds %struct.cli_bc_hooks, ptr %74, i32 0, i32 4
  %76 = load ptr, ptr %75, align 8
  %77 = getelementptr inbounds %struct.cli_pe_hook_data, ptr %76, i32 0, i32 10
  %78 = getelementptr inbounds [16 x %struct.pe_image_data_dir], ptr %77, i64 0, i64 2
  %79 = getelementptr inbounds %struct.pe_image_data_dir, ptr %78, i32 0, i32 1
  %80 = load i32, ptr %79, align 4
  %81 = icmp ne i32 %80, 0
  br i1 %81, label %84, label %82

82:                                               ; preds = %72, %61
  %83 = getelementptr inbounds %struct.cli_exe_info, ptr %15, i32 0, i32 4
  store i32 0, ptr %83, align 4
  br label %94

84:                                               ; preds = %72
  %85 = load ptr, ptr %7, align 8
  %86 = getelementptr inbounds %struct.cli_bc_ctx, ptr %85, i32 0, i32 16
  %87 = getelementptr inbounds %struct.cli_bc_hooks, ptr %86, i32 0, i32 4
  %88 = load ptr, ptr %87, align 8
  %89 = getelementptr inbounds %struct.cli_pe_hook_data, ptr %88, i32 0, i32 10
  %90 = getelementptr inbounds [16 x %struct.pe_image_data_dir], ptr %89, i64 0, i64 2
  %91 = getelementptr inbounds %struct.pe_image_data_dir, ptr %90, i32 0, i32 0
  %92 = load i32, ptr %91, align 8
  %93 = getelementptr inbounds %struct.cli_exe_info, ptr %15, i32 0, i32 4
  store i32 %92, ptr %93, align 4
  br label %94

94:                                               ; preds = %84, %82
  br label %100

95:                                               ; preds = %54
  %96 = load ptr, ptr %7, align 8
  %97 = getelementptr inbounds %struct.cli_bc_ctx, ptr %96, i32 0, i32 28
  %98 = load i32, ptr %97, align 8
  %99 = getelementptr inbounds %struct.cli_exe_info, ptr %15, i32 0, i32 4
  store i32 %98, ptr %99, align 4
  br label %100

100:                                              ; preds = %95, %94
  %101 = load ptr, ptr %7, align 8
  %102 = getelementptr inbounds %struct.cli_bc_ctx, ptr %101, i32 0, i32 27
  %103 = load ptr, ptr %102, align 8
  %104 = getelementptr inbounds %struct.cli_exe_info, ptr %15, i32 0, i32 0
  store ptr %103, ptr %104, align 8
  %105 = load ptr, ptr %7, align 8
  %106 = getelementptr inbounds %struct.cli_bc_ctx, ptr %105, i32 0, i32 16
  %107 = getelementptr inbounds %struct.cli_bc_hooks, ptr %106, i32 0, i32 4
  %108 = load ptr, ptr %107, align 8
  %109 = getelementptr inbounds %struct.cli_pe_hook_data, ptr %108, i32 0, i32 2
  %110 = load i16, ptr %109, align 8
  %111 = getelementptr inbounds %struct.cli_exe_info, ptr %15, i32 0, i32 3
  store i16 %110, ptr %111, align 8
  %112 = load ptr, ptr %7, align 8
  %113 = getelementptr inbounds %struct.cli_bc_ctx, ptr %112, i32 0, i32 16
  %114 = getelementptr inbounds %struct.cli_bc_hooks, ptr %113, i32 0, i32 4
  %115 = load ptr, ptr %114, align 8
  %116 = getelementptr inbounds %struct.cli_pe_hook_data, ptr %115, i32 0, i32 14
  %117 = load i32, ptr %116, align 4
  %118 = getelementptr inbounds %struct.cli_exe_info, ptr %15, i32 0, i32 5
  store i32 %117, ptr %118, align 8
  %119 = getelementptr inbounds [128 x i8], ptr %13, i64 0, i64 0
  %120 = getelementptr inbounds [128 x i8], ptr %14, i64 0, i64 0
  call void (ptr, ...) @cli_dbgmsg(ptr noundef @.str.32, ptr noundef %119, ptr noundef %120)
  %121 = load ptr, ptr %7, align 8
  %122 = getelementptr inbounds %struct.cli_bc_ctx, ptr %121, i32 0, i32 30
  %123 = load ptr, ptr %122, align 8
  %124 = getelementptr inbounds [128 x i8], ptr %13, i64 0, i64 0
  %125 = load i8, ptr %124, align 16
  %126 = sext i8 %125 to i32
  %127 = icmp ne i32 %126, 0
  br i1 %127, label %128, label %130

128:                                              ; preds = %100
  %129 = getelementptr inbounds [128 x i8], ptr %13, i64 0, i64 0
  br label %131

130:                                              ; preds = %100
  br label %131

131:                                              ; preds = %130, %128
  %132 = phi ptr [ %129, %128 ], [ null, %130 ]
  %133 = getelementptr inbounds [128 x i8], ptr %14, i64 0, i64 0
  %134 = load i8, ptr %133, align 16
  %135 = sext i8 %134 to i32
  %136 = icmp ne i32 %135, 0
  br i1 %136, label %137, label %139

137:                                              ; preds = %131
  %138 = getelementptr inbounds [128 x i8], ptr %14, i64 0, i64 0
  br label %140

139:                                              ; preds = %131
  br label %140

140:                                              ; preds = %139, %137
  %141 = phi ptr [ %138, %137 ], [ null, %139 ]
  %142 = call i32 @matchicon(ptr noundef %123, ptr noundef %15, ptr noundef %132, ptr noundef %141)
  store i32 %142, ptr %12, align 4
  %143 = load i32, ptr %12, align 4
  store i32 %143, ptr %6, align 4
  br label %144

144:                                              ; preds = %140, %32, %23
  %145 = load i32, ptr %6, align 4
  ret i32 %145
}