; Function Attrs: nounwind uwtable
define i32 @cli_bcapi_matchicon(ptr nocapture noundef readonly %0, ptr nocapture noundef readonly %1, i32 noundef %2, ptr nocapture noundef readonly %3, i32 noundef %4) local_unnamed_addr #0 {
  %6 = alloca %struct.icon_groupset, align 8
  %7 = alloca [128 x i8], align 16
  %8 = alloca [128 x i8], align 16
  %9 = alloca %struct.cli_exe_info, align 8
  %10 = getelementptr inbounds i8, ptr %0, i64 128
  %11 = load ptr, ptr %10, align 8
  %12 = getelementptr inbounds i8, ptr %11, i64 4
  %13 = load i32, ptr %12, align 4
  %.not = icmp eq i32 %13, 0
  br i1 %.not, label %14, label %15

14:                                               ; preds = %5
  tail call void (ptr, ...) @cli_dbgmsg(ptr noundef nonnull @.str.31) #12
  br label %74

15:                                               ; preds = %5
  %16 = or i32 %4, %2
  %or.cond.not = icmp ult i32 %16, 128
  br i1 %or.cond.not, label %17, label %74

17:                                               ; preds = %15
  %18 = zext nneg i32 %4 to i64
  %19 = zext nneg i32 %2 to i64
  call void @llvm.memcpy.p0.p0.i64(ptr nonnull align 16 %7, ptr align 1 %1, i64 %19, i1 false)
  call void @llvm.memcpy.p0.p0.i64(ptr nonnull align 16 %8, ptr align 1 %3, i64 %18, i1 false)
  %20 = getelementptr inbounds [128 x i8], ptr %7, i64 0, i64 %19
  store i8 0, ptr %20, align 1
  %21 = getelementptr inbounds [128 x i8], ptr %8, i64 0, i64 %18
  store i8 0, ptr %21, align 1
  %22 = getelementptr inbounds i8, ptr %9, i64 8
  call void @llvm.memset.p0.i64(ptr noundef nonnull align 8 dereferenceable(376) %22, i8 0, i64 368, i1 false)
  %23 = getelementptr inbounds i8, ptr %0, i64 8
  %24 = load ptr, ptr %23, align 8
  %25 = getelementptr inbounds i8, ptr %24, i64 52
  %26 = load i32, ptr %25, align 4
  switch i32 %26, label %36 [
    i32 257, label %27
    i32 259, label %27
  ]

27:                                               ; preds = %17, %17
  %28 = getelementptr inbounds i8, ptr %11, i64 34
  %29 = load i16, ptr %28, align 2
  %30 = and i16 %29, 8192
  %.not25 = icmp eq i16 %30, 0
  br i1 %.not25, label %31, label %40

31:                                               ; preds = %27
  %32 = getelementptr inbounds i8, ptr %11, i64 524
  %33 = load i32, ptr %32, align 4
  %.not26 = icmp eq i32 %33, 0
  br i1 %.not26, label %40, label %34

34:                                               ; preds = %31
  %35 = getelementptr inbounds i8, ptr %11, i64 520
  br label %.sink.split

36:                                               ; preds = %17
  %37 = getelementptr inbounds i8, ptr %0, i64 1072
  br label %.sink.split

.sink.split:                                      ; preds = %36, %34
  %.sink.in = phi ptr [ %35, %34 ], [ %37, %36 ]
  %.sink = load i32, ptr %.sink.in, align 8
  %38 = getelementptr inbounds i8, ptr %9, i64 20
  store i32 %.sink, ptr %38, align 4
  %39 = icmp eq i32 %.sink, 0
  br label %40

40:                                               ; preds = %.sink.split, %27, %31
  %.not22.i = phi i1 [ true, %31 ], [ true, %27 ], [ %39, %.sink.split ]
  %41 = getelementptr inbounds i8, ptr %0, i64 1064
  %42 = load ptr, ptr %41, align 8
  store ptr %42, ptr %9, align 8
  %43 = getelementptr inbounds i8, ptr %11, i64 8
  %44 = load i16, ptr %43, align 8
  %45 = getelementptr inbounds i8, ptr %9, i64 16
  store i16 %44, ptr %45, align 8
  %46 = getelementptr inbounds i8, ptr %11, i64 644
  %47 = load i32, ptr %46, align 4
  %48 = getelementptr inbounds i8, ptr %9, i64 24
  store i32 %47, ptr %48, align 8
  call void (ptr, ...) @cli_dbgmsg(ptr noundef nonnull @.str.32, ptr noundef nonnull %7, ptr noundef nonnull %8) #12
  %49 = getelementptr inbounds i8, ptr %0, i64 1088
  %50 = load ptr, ptr %49, align 8
  %51 = load i8, ptr %7, align 16
  %.not27 = icmp eq i8 %51, 0
  %52 = load i8, ptr %8, align 16
  %.not28 = icmp eq i8 %52, 0
  call void @llvm.lifetime.start.p0(i64 64, ptr nonnull %6)
  %.not.i = icmp eq ptr %50, null
  br i1 %.not.i, label %matchicon.exit, label %53

53:                                               ; preds = %40
  %54 = getelementptr inbounds i8, ptr %50, i64 48
  %55 = load ptr, ptr %54, align 8
  %.not18.i = icmp eq ptr %55, null
  br i1 %.not18.i, label %matchicon.exit, label %56

56:                                               ; preds = %53
  %57 = getelementptr inbounds i8, ptr %55, i64 224
  %58 = load ptr, ptr %57, align 8
  %.not19.i = icmp eq ptr %58, null
  br i1 %.not19.i, label %matchicon.exit, label %59

59:                                               ; preds = %56
  %60 = getelementptr inbounds i8, ptr %58, i64 16
  %61 = load i32, ptr %60, align 8
  %.not20.i = icmp eq i32 %61, 0
  br i1 %.not20.i, label %matchicon.exit, label %62

62:                                               ; preds = %59
  %63 = getelementptr inbounds i8, ptr %58, i64 20
  %64 = load i32, ptr %63, align 4
  %.not21.i = icmp eq i32 %64, 0
  %or.cond = select i1 %.not21.i, i1 true, i1 %.not22.i
  br i1 %or.cond, label %matchicon.exit, label %65

65:                                               ; preds = %62
  %66 = getelementptr inbounds i8, ptr %50, i64 120
  %67 = load ptr, ptr %66, align 8
  %68 = load i32, ptr %67, align 4
  %69 = and i32 %68, 262144
  %.not23.i = icmp eq i32 %69, 0
  br i1 %.not23.i, label %matchicon.exit, label %70

70:                                               ; preds = %65
  call void @llvm.memset.p0.i64(ptr noundef nonnull align 8 dereferenceable(64) %6, i8 0, i64 64, i1 false)
  %71 = select i1 %.not27, ptr @.str.2, ptr %7
  call void @cli_icongroupset_add(ptr noundef nonnull %71, ptr noundef nonnull %6, i32 noundef 0, ptr noundef nonnull %50) #12
  %72 = select i1 %.not28, ptr @.str.2, ptr %8
  call void @cli_icongroupset_add(ptr noundef nonnull %72, ptr noundef nonnull %6, i32 noundef 1, ptr noundef nonnull %50) #12
  %73 = call i32 @cli_scanicon(ptr noundef nonnull %6, ptr noundef nonnull %50, ptr noundef nonnull %9) #12
  br label %matchicon.exit

matchicon.exit:                                   ; preds = %40, %53, %56, %59, %62, %65, %70
  %.0.i = phi i32 [ %73, %70 ], [ 0, %62 ], [ 0, %59 ], [ 0, %56 ], [ 0, %53 ], [ 0, %40 ], [ 0, %65 ]
  call void @llvm.lifetime.end.p0(i64 64, ptr nonnull %6)
  br label %74

74:                                               ; preds = %15, %matchicon.exit, %14
  %.0 = phi i32 [ %.0.i, %matchicon.exit ], [ -1, %14 ], [ -1, %15 ]
  ret i32 %.0
}